; Function Attrs: inlinehint mustprogress optsize uwtable
define internal noundef ptr @_ZZN8nanobind6detail11func_createILb1ELb1EZNS_6class_IZL30nanobind_init_test_classes_extRNS_7module_EE5UnionJEE6def_rwIS5_fJEEERS6_PKcMT_T0_DpRKT1_EUlRKS5_E_RKfJSJ_EJLm0EEJNS_9is_methodENS_9is_getterENS_9rv_policyEEEEP7_objectOT1_PFT2_DpT3_ESt16integer_sequenceImJXspT4_EEEDpRKT5_ENUlPvPSR_PhSP_PNS0_12cleanup_listEE_8__invokeES15_S16_S17_SP_S19_(ptr noundef readonly captures(none) %0, ptr noundef readonly captures(none) %1, ptr noundef readonly captures(none) %2, i32 %3, ptr noundef %4) #16 align 2 personality ptr @__gxx_personality_v0 {
  %6 = alloca %"struct.nanobind::detail::tuple.851", align 8
  call void @llvm.lifetime.start.p0(i64 8, ptr nonnull %6) #37
  %7 = load ptr, ptr %1, align 8, !tbaa !23
  %8 = load i8, ptr %2, align 1, !tbaa !61
  %9 = call noundef zeroext i1 @_ZN8nanobind6detail11nb_type_getEPKSt9type_infoP7_objecthPNS0_12cleanup_listEPPv(ptr noundef nonnull @_ZTIZL30nanobind_init_test_classes_extRN8nanobind7module_EE5Union, ptr noundef %7, i8 noundef zeroext %8, ptr noundef %4, ptr noundef nonnull align 8 dereferenceable(8) %6) #35
  br i1 %9, label %10, label %_ZZN8nanobind6detail11func_createILb1ELb1EZNS_6class_IZL30nanobind_init_test_classes_extRNS_7module_EE5UnionJEE6def_rwIS5_fJEEERS6_PKcMT_T0_DpRKT1_EUlRKS5_E_RKfJSJ_EJLm0EEJNS_9is_methodENS_9is_getterENS_9rv_policyEEEEP7_objectOT1_PFT2_DpT3_ESt16integer_sequenceImJXspT4_EEEDpRKT5_ENKUlPvPSR_PhSP_PNS0_12cleanup_listEE_clES15_S16_S17_SP_S19_.exit

10:                                               ; preds = %5
  %11 = load ptr, ptr %6, align 8, !tbaa !572
  call void @_ZN8nanobind6detail27raise_next_overload_if_nullEPv(ptr noundef %11) #38
  %12 = load ptr, ptr %6, align 8, !tbaa !572
  %.val = load i64, ptr %0, align 8, !tbaa !579
  %13 = getelementptr inbounds i8, ptr %12, i64 %.val
  %14 = load float, ptr %13, align 4, !tbaa !215
  %15 = fpext float %14 to double
  %16 = invoke ptr @PyFloat_FromDouble(double noundef %15) #38
          to label %_ZZN8nanobind6detail11func_createILb1ELb1EZNS_6class_IZL30nanobind_init_test_classes_extRNS_7module_EE5UnionJEE6def_rwIS5_fJEEERS6_PKcMT_T0_DpRKT1_EUlRKS5_E_RKfJSJ_EJLm0EEJNS_9is_methodENS_9is_getterENS_9rv_policyEEEEP7_objectOT1_PFT2_DpT3_ESt16integer_sequenceImJXspT4_EEEDpRKT5_ENKUlPvPSR_PhSP_PNS0_12cleanup_listEE_clES15_S16_S17_SP_S19_.exit unwind label %17

17:                                               ; preds = %10
  %18 = landingpad { ptr, i32 }
          catch ptr null
  %19 = extractvalue { ptr, i32 } %18, 0
  call void @__clang_call_terminate(ptr %19) #39
  unreachable

_ZZN8nanobind6detail11func_createILb1ELb1EZNS_6class_IZL30nanobind_init_test_classes_extRNS_7module_EE5UnionJEE6def_rwIS5_fJEEERS6_PKcMT_T0_DpRKT1_EUlRKS5_E_RKfJSJ_EJLm0EEJNS_9is_methodENS_9is_getterENS_9rv_policyEEEEP7_objectOT1_PFT2_DpT3_ESt16integer_sequenceImJXspT4_EEEDpRKT5_ENKUlPvPSR_PhSP_PNS0_12cleanup_listEE_clES15_S16_S17_SP_S19_.exit: ; preds = %10, %5
  %.0.i = phi ptr [ inttoptr (i64 1 to ptr), %5 ], [ %16, %10 ]
  call void @llvm.lifetime.end.p0(i64 8, ptr nonnull %6) #37
  ret ptr %.0.i
}